ccopy_reg
_reconstructor
p0
(cminmax_normalization
MinMaxNormalization
p1
c__builtin__
object
p2
Ntp3
Rp4
(dp5
S'_min'
p6
cnumpy.core.multiarray
scalar
p7
(cnumpy
dtype
p8
(S'f8'
p9
I0
I1
tp10
Rp11
(I3
S'<'
p12
NNNI-1
I-1
I0
tp13
bS'yVC168\x0e\xc0'
p14
tp15
Rp16
sS'_max'
p17
g7
(g11
S'k"\xc9\xe1:A@@'
p18
tp19
Rp20
sb.